; Function Attrs: inlinehint nofree nounwind memory(write, argmem: none, inaccessiblemem: readwrite) uwtable
define internal fastcc noalias noundef ptr @pmix_bfrops_base_tma_regattr_create(i64 noundef %0) unnamed_addr #20 {
  %2 = icmp eq i64 %0, 0
  br i1 %2, label %.loopexit, label %3

3:                                                ; preds = %1
  %4 = mul i64 %0, 536
  %5 = tail call noalias noundef ptr @malloc(i64 noundef %4) #25
  %.not = icmp eq ptr %5, null
  br i1 %.not, label %.loopexit, label %.preheader, !prof !43

.preheader:                                       ; preds = %3, %.preheader
  %.01 = phi i64 [ %8, %.preheader ], [ 0, %3 ]
  %6 = getelementptr inbounds nuw %struct.pmix_regattr_t, ptr %5, i64 %.01
  %7 = getelementptr inbounds nuw i8, ptr %6, i64 528
  store ptr null, ptr %7, align 8, !tbaa !134
  tail call void @llvm.memset.p0.i64(ptr noundef nonnull align 8 dereferenceable(522) %6, i8 0, i64 522, i1 false)
  %8 = add nuw i64 %.01, 1
  %exitcond.not = icmp eq i64 %8, %0
  br i1 %exitcond.not, label %.loopexit, label %.preheader, !llvm.loop !240

.loopexit:                                        ; preds = %.preheader, %3, %1
  %.011 = phi ptr [ null, %1 ], [ null, %3 ], [ %5, %.preheader ]
  ret ptr %.011
}